; Function Attrs: nounwind uwtable
define void @Gia_ManIncrSimStart(ptr noundef writeonly captures(none) initializes((812, 820), (832, 840), (896, 908), (912, 920)) %0, i32 noundef %1, i32 noundef %2) local_unnamed_addr #1 {
  %4 = getelementptr inbounds nuw i8, ptr %0, i64 896
  store i32 1, ptr %4, align 8, !tbaa !155
  %5 = getelementptr inbounds nuw i8, ptr %0, i64 812
  store i32 0, ptr %5, align 4, !tbaa !112
  %6 = getelementptr inbounds nuw i8, ptr %0, i64 816
  store i32 %1, ptr %6, align 8, !tbaa !114
  %7 = getelementptr inbounds nuw i8, ptr %0, i64 904
  store i32 1, ptr %7, align 8, !tbaa !156
  %8 = tail call noalias dereferenceable_or_null(16) ptr @malloc(i64 noundef 16) #25
  %9 = add i32 %1, -1
  %or.cond.i = icmp ult i32 %9, 15
  %spec.store.select.i = select i1 %or.cond.i, i32 16, i32 %1
  %10 = getelementptr inbounds nuw i8, ptr %8, i64 4
  store i32 0, ptr %10, align 4, !tbaa !34
  store i32 %spec.store.select.i, ptr %8, align 8, !tbaa !35
  %.not.i = icmp eq i32 %spec.store.select.i, 0
  br i1 %.not.i, label %Vec_IntAlloc.exit, label %11

11:                                               ; preds = %3
  %12 = sext i32 %spec.store.select.i to i64
  %13 = shl nsw i64 %12, 2
  %14 = tail call noalias ptr @malloc(i64 noundef %13) #25
  br label %Vec_IntAlloc.exit

Vec_IntAlloc.exit:                                ; preds = %3, %11
  %15 = phi ptr [ %14, %11 ], [ null, %3 ]
  %16 = getelementptr inbounds nuw i8, ptr %8, i64 8
  store ptr %15, ptr %16, align 8, !tbaa !36
  %17 = getelementptr inbounds nuw i8, ptr %0, i64 912
  store ptr %8, ptr %17, align 8, !tbaa !151
  %18 = getelementptr inbounds nuw i8, ptr %0, i64 900
  store i32 0, ptr %18, align 4, !tbaa !152
  %19 = mul nsw i32 %2, %1
  %20 = tail call noalias dereferenceable_or_null(16) ptr @malloc(i64 noundef 16) #25
  %21 = add i32 %19, -1
  %or.cond.i10 = icmp ult i32 %21, 15
  %spec.store.select.i11 = select i1 %or.cond.i10, i32 16, i32 %19
  %22 = getelementptr inbounds nuw i8, ptr %20, i64 4
  store i32 0, ptr %22, align 4, !tbaa !122
  store i32 %spec.store.select.i11, ptr %20, align 8, !tbaa !116
  %.not.i12 = icmp eq i32 %spec.store.select.i11, 0
  br i1 %.not.i12, label %Vec_WrdAlloc.exit, label %23

23:                                               ; preds = %Vec_IntAlloc.exit
  %24 = sext i32 %spec.store.select.i11 to i64
  %25 = shl nsw i64 %24, 3
  %26 = tail call noalias ptr @malloc(i64 noundef %25) #25
  br label %Vec_WrdAlloc.exit

Vec_WrdAlloc.exit:                                ; preds = %Vec_IntAlloc.exit, %23
  %27 = phi ptr [ %26, %23 ], [ null, %Vec_IntAlloc.exit ]
  %28 = getelementptr inbounds nuw i8, ptr %20, i64 8
  store ptr %27, ptr %28, align 8, !tbaa !119
  %29 = getelementptr inbounds nuw i8, ptr %0, i64 832
  store ptr %20, ptr %29, align 8, !tbaa !123
  %30 = tail call i64 @Gia_ManRandomW(i32 noundef 1) #26
  ret void
}